target datalayout = "e-m:e-p270:32:32-p271:32:32-p272:64:64-i64:64-i128:128-f80:128-n8:16:32:64-S128"
target triple = "x86_64-pc-linux-gnu"

%struct.anon = type { ptr, i64 }

; Function Attrs: nounwind uwtable
define hidden ptr @pysqlite_error_name(i32 noundef %0) #0 {
  %2 = alloca ptr, align 8
  %3 = alloca i32, align 4
  %4 = alloca i32, align 4
  %5 = alloca i32, align 4
  store i32 %0, ptr %3, align 4, !tbaa !3
  call void @llvm.lifetime.start.p0(i64 4, ptr %4) #6
  store i32 0, ptr %4, align 4, !tbaa !3
  br label %6

6:                                                ; preds = %30, %1
  %7 = load i32, ptr %4, align 4, !tbaa !3
  %8 = sext i32 %7 to i64
  %9 = getelementptr [106 x %struct.anon], ptr @error_codes, i64 0, i64 %8
  %10 = getelementptr inbounds nuw %struct.anon, ptr %9, i32 0, i32 0
  %11 = load ptr, ptr %10, align 16, !tbaa !7
  %12 = icmp ne ptr %11, null
  br i1 %12, label %14, label %13

13:                                               ; preds = %6
  store i32 2, ptr %5, align 4
  br label %33

14:                                               ; preds = %6
  %15 = load i32, ptr %4, align 4, !tbaa !3
  %16 = sext i32 %15 to i64
  %17 = getelementptr [106 x %struct.anon], ptr @error_codes, i64 0, i64 %16
  %18 = getelementptr inbounds nuw %struct.anon, ptr %17, i32 0, i32 1
  %19 = load i64, ptr %18, align 8, !tbaa !12
  %20 = load i32, ptr %3, align 4, !tbaa !3
  %21 = sext i32 %20 to i64
  %22 = icmp eq i64 %19, %21
  br i1 %22, label %23, label %29

23:                                               ; preds = %14
  %24 = load i32, ptr %4, align 4, !tbaa !3
  %25 = sext i32 %24 to i64
  %26 = getelementptr [106 x %struct.anon], ptr @error_codes, i64 0, i64 %25
  %27 = getelementptr inbounds nuw %struct.anon, ptr %26, i32 0, i32 0
  %28 = load ptr, ptr %27, align 16, !tbaa !7
  store ptr %28, ptr %2, align 8
  store i32 1, ptr %5, align 4
  br label %33

29:                                               ; preds = %14
  br label %30

30:                                               ; preds = %29
  %31 = load i32, ptr %4, align 4, !tbaa !3
  %32 = add i32 %31, 1
  store i32 %32, ptr %4, align 4, !tbaa !3
  br label %6, !llvm.loop !13

33:                                               ; preds = %23, %13
  call void @llvm.lifetime.end.p0(i64 4, ptr %4) #6
  %34 = load i32, ptr %5, align 4
  switch i32 %34, label %38 [
    i32 2, label %35
    i32 1, label %36
  ]

35:                                               ; preds = %33
  store ptr null, ptr %2, align 8
  br label %36

36:                                               ; preds = %35, %33
  %37 = load ptr, ptr %2, align 8
  ret ptr %37

38:                                               ; preds = %33
  unreachable
}