; Function Attrs: nofree norecurse nosync nounwind memory(none) uwtable
define hidden ptr @pysqlite_error_name(i32 noundef %0) local_unnamed_addr #0 {
  %2 = sext i32 %0 to i64
  %3 = icmp eq i32 %0, 4
  br i1 %3, label %._crit_edge, label %.lr.ph

.lr.ph:                                           ; preds = %1, %8
  %.0689 = phi i32 [ %4, %8 ], [ 0, %1 ]
  %4 = add i32 %.0689, 1
  %5 = sext i32 %4 to i64
  %6 = getelementptr [106 x %struct.anon], ptr @error_codes, i64 0, i64 %5
  %7 = load ptr, ptr %6, align 16, !tbaa !3
  %.not = icmp eq ptr %7, null
  br i1 %.not, label %._crit_edge, label %8, !llvm.loop !10

8:                                                ; preds = %.lr.ph
  %9 = getelementptr inbounds nuw i8, ptr %6, i64 8
  %10 = load i64, ptr %9, align 8, !tbaa !12
  %11 = icmp eq i64 %10, %2
  br i1 %11, label %._crit_edge, label %.lr.ph, !llvm.loop !10

._crit_edge:                                      ; preds = %.lr.ph, %8, %1
  %.lcssa = phi ptr [ @.str.1, %1 ], [ null, %.lr.ph ], [ %7, %8 ]
  ret ptr %.lcssa
}